target datalayout = "e-m:e-p270:32:32-p271:32:32-p272:64:64-i64:64-i128:128-f80:128-n8:16:32:64-S128"
target triple = "x86_64-pc-linux-gnu"

%struct.Lexer = type { %struct.StringPiece, %struct.StringPiece, ptr, ptr }
%struct.StringPiece = type { ptr, i64 }

; Function Attrs: mustprogress nounwind uwtable
define dso_local void @_ZN5Lexer11UnreadTokenEv(ptr noundef nonnull align 8 dereferenceable(48) %0) #3 align 2 {
  %2 = alloca ptr, align 8
  store ptr %0, ptr %2, align 8, !tbaa !4
  %3 = load ptr, ptr %2, align 8
  %4 = getelementptr inbounds nuw %struct.Lexer, ptr %3, i32 0, i32 3
  %5 = load ptr, ptr %4, align 8, !tbaa !19
  %6 = getelementptr inbounds nuw %struct.Lexer, ptr %3, i32 0, i32 2
  store ptr %5, ptr %6, align 8, !tbaa !36
  ret void
}

; Function Attrs: mustprogress uwtable
define dso_local noundef zeroext i1 @_ZN5Lexer9PeekTokenENS_5TokenE(ptr noundef nonnull align 8 dereferenceable(48) %0, i32 noundef %1) #0 align 2 {
  %3 = alloca i1, align 1
  %4 = alloca ptr, align 8
  %5 = alloca i32, align 4
  %6 = alloca i32, align 4
  %7 = alloca i32, align 4
  store ptr %0, ptr %4, align 8, !tbaa !4
  store i32 %1, ptr %5, align 4, !tbaa !37
  %8 = load ptr, ptr %4, align 8
  call void @llvm.lifetime.start.p0(i64 4, ptr %6) #13
  %9 = call noundef i32 @_ZN5Lexer9ReadTokenEv(ptr noundef nonnull align 8 dereferenceable(48) %8)
  store i32 %9, ptr %6, align 4, !tbaa !37
  %10 = load i32, ptr %6, align 4, !tbaa !37
  %11 = load i32, ptr %5, align 4, !tbaa !37
  %12 = icmp eq i32 %10, %11
  br i1 %12, label %13, label %14

13:                                               ; preds = %2
  store i1 true, ptr %3, align 1
  store i32 1, ptr %7, align 4
  br label %15

14:                                               ; preds = %2
  call void @_ZN5Lexer11UnreadTokenEv(ptr noundef nonnull align 8 dereferenceable(48) %8)
  store i1 false, ptr %3, align 1
  store i32 1, ptr %7, align 4
  br label %15

15:                                               ; preds = %14, %13
  call void @llvm.lifetime.end.p0(i64 4, ptr %6) #13
  %16 = load i1, ptr %3, align 1
  ret i1 %16
}