; Function Attrs: mustprogress nofree norecurse nosync nounwind memory(read, argmem: readwrite, inaccessiblemem: none) uwtable
define dso_local noundef zeroext i1 @_ZN5Lexer9PeekTokenENS_5TokenE(ptr noundef nonnull align 8 captures(none) dereferenceable(48) %0, i32 noundef %1) local_unnamed_addr #8 align 2 {
  %3 = tail call noundef i32 @_ZN5Lexer9ReadTokenEv(ptr noundef nonnull align 8 dereferenceable(48) %0)
  %4 = icmp eq i32 %3, %1
  br i1 %4, label %9, label %5

5:                                                ; preds = %2
  %6 = getelementptr inbounds nuw i8, ptr %0, i64 40
  %7 = load ptr, ptr %6, align 8, !tbaa !12
  %8 = getelementptr inbounds nuw i8, ptr %0, i64 32
  store ptr %7, ptr %8, align 8, !tbaa !32
  br label %9

9:                                                ; preds = %2, %5
  ret i1 %4
}